target datalayout = "e-m:e-p270:32:32-p271:32:32-p272:64:64-i64:64-i128:128-f80:128-n8:16:32:64-S128"
target triple = "x86_64-pc-linux-gnu"

%struct.cmsCIEXYZ = type { double, double, double }

@.str.8 = private unnamed_addr constant [4 x i8] c">>\0A\00", align 1
@.str.10 = private unnamed_addr constant [14 x i8] c"[ /CIEBasedA\0A\00", align 1
@.str.11 = private unnamed_addr constant [6 x i8] c"  <<\0A\00", align 1
@.str.12 = private unnamed_addr constant [10 x i8] c"/DecodeA \00", align 1
@.str.13 = private unnamed_addr constant [3 x i8] c" \0A\00", align 1
@.str.14 = private unnamed_addr constant [35 x i8] c"/MatrixA [ 0.9642 1.0000 0.8249 ]\0A\00", align 1
@.str.15 = private unnamed_addr constant [48 x i8] c"/RangeLMN [ 0.0 0.9642 0.0 1.0000 0.0 0.8249 ]\0A\00", align 1
@.str.16 = private unnamed_addr constant [3 x i8] c"]\0A\00", align 1
@.str.41 = private unnamed_addr constant [24 x i8] c"/BlackPoint [%f %f %f]\0A\00", align 1
@.str.42 = private unnamed_addr constant [24 x i8] c"/WhitePoint [%f %f %f]\0A\00", align 1
@.str.43 = private unnamed_addr constant [11 x i8] c"Perceptual\00", align 1
@.str.44 = private unnamed_addr constant [21 x i8] c"RelativeColorimetric\00", align 1
@.str.45 = private unnamed_addr constant [21 x i8] c"AbsoluteColorimetric\00", align 1
@.str.46 = private unnamed_addr constant [11 x i8] c"Saturation\00", align 1
@.str.47 = private unnamed_addr constant [10 x i8] c"Undefined\00", align 1
@.str.48 = private unnamed_addr constant [23 x i8] c"/RenderingIntent (%s)\0A\00", align 1

; Function Attrs: nounwind uwtable
define internal void @EmitIntent(ptr noundef %0, i32 noundef %1) #0 {
  %3 = alloca ptr, align 8
  %4 = alloca i32, align 4
  %5 = alloca ptr, align 8
  store ptr %0, ptr %3, align 8
  store i32 %1, ptr %4, align 4
  %6 = load i32, ptr %4, align 4
  switch i32 %6, label %11 [
    i32 0, label %7
    i32 1, label %8
    i32 3, label %9
    i32 2, label %10
  ]

7:                                                ; preds = %2
  store ptr @.str.43, ptr %5, align 8
  br label %12

8:                                                ; preds = %2
  store ptr @.str.44, ptr %5, align 8
  br label %12

9:                                                ; preds = %2
  store ptr @.str.45, ptr %5, align 8
  br label %12

10:                                               ; preds = %2
  store ptr @.str.46, ptr %5, align 8
  br label %12

11:                                               ; preds = %2
  store ptr @.str.47, ptr %5, align 8
  br label %12

12:                                               ; preds = %11, %10, %9, %8, %7
  %13 = load ptr, ptr %3, align 8
  %14 = load ptr, ptr %5, align 8
  %15 = call i32 (ptr, ptr, ...) @_cmsIOPrintf(ptr noundef %13, ptr noundef @.str.48, ptr noundef %14)
  ret void
}

; Function Attrs: nounwind uwtable
define internal void @EmitWhiteBlackD50(ptr noundef %0, ptr noundef %1) #0 {
  %3 = alloca ptr, align 8
  %4 = alloca ptr, align 8
  store ptr %0, ptr %3, align 8
  store ptr %1, ptr %4, align 8
  %5 = load ptr, ptr %3, align 8
  %6 = load ptr, ptr %4, align 8
  %7 = getelementptr inbounds %struct.cmsCIEXYZ, ptr %6, i32 0, i32 0
  %8 = load double, ptr %7, align 8
  %9 = load ptr, ptr %4, align 8
  %10 = getelementptr inbounds %struct.cmsCIEXYZ, ptr %9, i32 0, i32 1
  %11 = load double, ptr %10, align 8
  %12 = load ptr, ptr %4, align 8
  %13 = getelementptr inbounds %struct.cmsCIEXYZ, ptr %12, i32 0, i32 2
  %14 = load double, ptr %13, align 8
  %15 = call i32 (ptr, ptr, ...) @_cmsIOPrintf(ptr noundef %5, ptr noundef @.str.41, double noundef %8, double noundef %11, double noundef %14)
  %16 = load ptr, ptr %3, align 8
  %17 = call ptr @cmsD50_XYZ()
  %18 = getelementptr inbounds %struct.cmsCIEXYZ, ptr %17, i32 0, i32 0
  %19 = load double, ptr %18, align 8
  %20 = call ptr @cmsD50_XYZ()
  %21 = getelementptr inbounds %struct.cmsCIEXYZ, ptr %20, i32 0, i32 1
  %22 = load double, ptr %21, align 8
  %23 = call ptr @cmsD50_XYZ()
  %24 = getelementptr inbounds %struct.cmsCIEXYZ, ptr %23, i32 0, i32 2
  %25 = load double, ptr %24, align 8
  %26 = call i32 (ptr, ptr, ...) @_cmsIOPrintf(ptr noundef %16, ptr noundef @.str.42, double noundef %19, double noundef %22, double noundef %25)
  ret void
}

; Function Attrs: nounwind uwtable
define internal i32 @EmitCIEBasedA(ptr noundef %0, ptr noundef %1, ptr noundef %2) #0 {
  %4 = alloca ptr, align 8
  %5 = alloca ptr, align 8
  %6 = alloca ptr, align 8
  store ptr %0, ptr %4, align 8
  store ptr %1, ptr %5, align 8
  store ptr %2, ptr %6, align 8
  %7 = load ptr, ptr %4, align 8
  %8 = call i32 (ptr, ptr, ...) @_cmsIOPrintf(ptr noundef %7, ptr noundef @.str.10)
  %9 = load ptr, ptr %4, align 8
  %10 = call i32 (ptr, ptr, ...) @_cmsIOPrintf(ptr noundef %9, ptr noundef @.str.11)
  %11 = load ptr, ptr %4, align 8
  %12 = call i32 (ptr, ptr, ...) @_cmsIOPrintf(ptr noundef %11, ptr noundef @.str.12)
  %13 = load ptr, ptr %4, align 8
  %14 = load ptr, ptr %5, align 8
  call void @Emit1Gamma(ptr noundef %13, ptr noundef %14)
  %15 = load ptr, ptr %4, align 8
  %16 = call i32 (ptr, ptr, ...) @_cmsIOPrintf(ptr noundef %15, ptr noundef @.str.13)
  %17 = load ptr, ptr %4, align 8
  %18 = call i32 (ptr, ptr, ...) @_cmsIOPrintf(ptr noundef %17, ptr noundef @.str.14)
  %19 = load ptr, ptr %4, align 8
  %20 = call i32 (ptr, ptr, ...) @_cmsIOPrintf(ptr noundef %19, ptr noundef @.str.15)
  %21 = load ptr, ptr %4, align 8
  %22 = load ptr, ptr %6, align 8
  call void @EmitWhiteBlackD50(ptr noundef %21, ptr noundef %22)
  %23 = load ptr, ptr %4, align 8
  call void @EmitIntent(ptr noundef %23, i32 noundef 0)
  %24 = load ptr, ptr %4, align 8
  %25 = call i32 (ptr, ptr, ...) @_cmsIOPrintf(ptr noundef %24, ptr noundef @.str.8)
  %26 = load ptr, ptr %4, align 8
  %27 = call i32 (ptr, ptr, ...) @_cmsIOPrintf(ptr noundef %26, ptr noundef @.str.16)
  ret i32 1
}