; Function Attrs: nounwind uwtable
define internal fastcc void @EmitCIEBasedA(ptr noundef %0, ptr noundef %1, ptr nocapture noundef readonly %2) unnamed_addr #0 {
  %4 = tail call i32 (ptr, ptr, ...) @_cmsIOPrintf(ptr noundef %0, ptr noundef nonnull @.str.10) #9
  %5 = tail call i32 (ptr, ptr, ...) @_cmsIOPrintf(ptr noundef %0, ptr noundef nonnull @.str.11) #9
  %6 = tail call i32 (ptr, ptr, ...) @_cmsIOPrintf(ptr noundef %0, ptr noundef nonnull @.str.12) #9
  tail call fastcc void @Emit1Gamma(ptr noundef %0, ptr noundef %1)
  %7 = tail call i32 (ptr, ptr, ...) @_cmsIOPrintf(ptr noundef %0, ptr noundef nonnull @.str.13) #9
  %8 = tail call i32 (ptr, ptr, ...) @_cmsIOPrintf(ptr noundef %0, ptr noundef nonnull @.str.14) #9
  %9 = tail call i32 (ptr, ptr, ...) @_cmsIOPrintf(ptr noundef %0, ptr noundef nonnull @.str.15) #9
  %10 = load double, ptr %2, align 8
  %11 = getelementptr inbounds i8, ptr %2, i64 8
  %12 = load double, ptr %11, align 8
  %13 = getelementptr inbounds i8, ptr %2, i64 16
  %14 = load double, ptr %13, align 8
  %15 = tail call i32 (ptr, ptr, ...) @_cmsIOPrintf(ptr noundef %0, ptr noundef nonnull @.str.41, double noundef %10, double noundef %12, double noundef %14) #9
  %16 = tail call ptr @cmsD50_XYZ() #9
  %17 = load double, ptr %16, align 8
  %18 = tail call ptr @cmsD50_XYZ() #9
  %19 = getelementptr inbounds i8, ptr %18, i64 8
  %20 = load double, ptr %19, align 8
  %21 = tail call ptr @cmsD50_XYZ() #9
  %22 = getelementptr inbounds i8, ptr %21, i64 16
  %23 = load double, ptr %22, align 8
  %24 = tail call i32 (ptr, ptr, ...) @_cmsIOPrintf(ptr noundef %0, ptr noundef nonnull @.str.42, double noundef %17, double noundef %20, double noundef %23) #9
  %25 = tail call i32 (ptr, ptr, ...) @_cmsIOPrintf(ptr noundef %0, ptr noundef nonnull @.str.48, ptr noundef nonnull @.str.43) #9
  %26 = tail call i32 (ptr, ptr, ...) @_cmsIOPrintf(ptr noundef %0, ptr noundef nonnull @.str.8) #9
  %27 = tail call i32 (ptr, ptr, ...) @_cmsIOPrintf(ptr noundef %0, ptr noundef nonnull @.str.16) #9
  ret void
}